ccopy_reg
_reconstructor
p0
(cgoogle.oauth2.credentials
Credentials
p1
c__builtin__
object
p2
Ntp3
Rp4
(dp5
S'_quota_project_id'
p6
NsS'_token_uri'
p7
Vhttps://oauth2.googleapis.com/token
p8
sS'_client_secret'
p9
VJpFEMRYNsRAb-KqWD3dGQt3B
p10
sS'_id_token'
p11
NsS'token'
p12
Vya29.a0AfH6SMBWpNCaY72lBCuhAWoAy5pBW6M6BgB2fGeIEMTML0N3CHBQHbP1FXsdp3hJMmCTFW-4M-tjol_-McIsE2H_lFv-7DTUSlj2KPRelyXE3WgSD44el3buuNCmkFeUjWOwb7OHZQue7oe5kav40L9mu44q58gv3vE
p13
sS'_refresh_token'
p14
V1//06u09msHqvEDoCgYIARAAGAYSNwF-L9IrXkDppKEIhAE_wO3cr-bWaccm98EGr8q74CIqVkIEPqNa61Koovnsf4Ws8xfGc5EY4B0
p15
sS'_scopes'
p16
(lp17
S'https://www.googleapis.com/auth/spreadsheets'
p18
asS'_client_id'
p19
V273833850280-nb0ap7b7can2kv2itgbfjksfg4hi2gtn.apps.googleusercontent.com
p20
sS'expiry'
p21
cdatetime
datetime
p22
(S'\x07\xe4\x07\t\x029\x00\x08\x8c,'
p23
tp24
Rp25
sb.